target datalayout = "e-m:e-p270:32:32-p271:32:32-p272:64:64-i64:64-i128:128-f80:128-n8:16:32:64-S128"
target triple = "x86_64-pc-linux-gnu"

@H5_libinit_g = external global i8, align 1
@H5_libterm_g = external global i8, align 1
@.str = private unnamed_addr constant [97 x i8] c"generated/home/dtcxzyw/WorkSpace/Projects/compilers/llvm-opt-benchmark/bench/hdf5/hdf5/src/H5P.c\00", align 1
@H5E_FUNC_g = external global i64, align 8
@H5E_CANTINIT_g = external global i64, align 8
@.str.1 = private unnamed_addr constant [30 x i8] c"library initialization failed\00", align 1
@H5E_CANTSET_g = external global i64, align 8
@.str.2 = private unnamed_addr constant [22 x i8] c"can't set API context\00", align 1
@H5E_ARGS_g = external global i64, align 8
@H5E_BADTYPE_g = external global i64, align 8
@H5E_PLIST_g = external global i64, align 8
@H5E_CANTCOPY_g = external global i64, align 8
@H5E_BADVALUE_g = external global i64, align 8
@.str.37 = private unnamed_addr constant [21 x i8] c"not property objects\00", align 1
@.str.38 = private unnamed_addr constant [38 x i8] c"not the same kind of property objects\00", align 1
@__func__.H5Pcopy_prop = private unnamed_addr constant [13 x i8] c"H5Pcopy_prop\00", align 1
@.str.46 = private unnamed_addr constant [18 x i8] c"invalid source ID\00", align 1
@.str.47 = private unnamed_addr constant [23 x i8] c"invalid destination ID\00", align 1
@.str.48 = private unnamed_addr constant [14 x i8] c"no name given\00", align 1
@.str.49 = private unnamed_addr constant [34 x i8] c"can't copy property between lists\00", align 1
@.str.50 = private unnamed_addr constant [36 x i8] c"can't copy property between classes\00", align 1

; Function Attrs: nounwind uwtable
define i32 @H5Pcopy_prop(i64 noundef %0, i64 noundef %1, ptr noundef %2) #0 {
  %4 = alloca i64, align 8
  %5 = alloca i64, align 8
  %6 = alloca ptr, align 8
  %7 = alloca i32, align 4
  %8 = alloca i32, align 4
  %9 = alloca i32, align 4
  %10 = alloca i8, align 1
  %11 = alloca i8, align 1
  store i64 %0, ptr %4, align 8
  store i64 %1, ptr %5, align 8
  store ptr %2, ptr %6, align 8
  store i32 0, ptr %9, align 4
  store i8 0, ptr %10, align 1
  store i8 0, ptr %11, align 1
  %12 = load i8, ptr @H5_libinit_g, align 1
  %13 = trunc i8 %12 to i1
  br i1 %13, label %18, label %14

14:                                               ; preds = %3
  %15 = load i8, ptr @H5_libterm_g, align 1
  %16 = trunc i8 %15 to i1
  %17 = xor i1 %16, true
  br label %18

18:                                               ; preds = %14, %3
  %19 = phi i1 [ false, %3 ], [ %17, %14 ]
  %20 = xor i1 %19, true
  %21 = xor i1 %20, true
  %22 = zext i1 %21 to i32
  %23 = sext i32 %22 to i64
  %24 = icmp ne i64 %23, 0
  br i1 %24, label %25, label %49

25:                                               ; preds = %18
  %26 = call i32 @H5_init_library()
  %27 = icmp slt i32 %26, 0
  %28 = xor i1 %27, true
  %29 = xor i1 %28, true
  %30 = zext i1 %29 to i32
  %31 = sext i32 %30 to i64
  %32 = icmp ne i64 %31, 0
  br i1 %32, label %33, label %48

33:                                               ; preds = %25
  br label %34

34:                                               ; preds = %33
  br label %35

35:                                               ; preds = %34
  br label %36

36:                                               ; preds = %35
  %37 = load i64, ptr @H5E_FUNC_g, align 8
  %38 = load i64, ptr @H5E_CANTINIT_g, align 8
  %39 = call i32 (ptr, ptr, i32, i64, i64, ptr, ...) @H5E_printf_stack(ptr noundef @.str, ptr noundef @__func__.H5Pcopy_prop, i32 noundef 1357, i64 noundef %37, i64 noundef %38, ptr noundef @.str.1)
  br label %40

40:                                               ; preds = %36
  store i8 1, ptr %11, align 1
  %41 = load i8, ptr %11, align 1
  %42 = trunc i8 %41 to i1
  %43 = zext i1 %42 to i8
  store i8 %43, ptr %11, align 1
  br label %44

44:                                               ; preds = %40
  br label %45

45:                                               ; preds = %44
  store i32 -1, ptr %9, align 4
  br label %228

46:                                               ; No predecessors!
  br label %47

47:                                               ; preds = %46
  br label %48

48:                                               ; preds = %47, %25
  br label %49

49:                                               ; preds = %48, %18
  %50 = call i32 @H5CX_push()
  %51 = icmp slt i32 %50, 0
  %52 = xor i1 %51, true
  %53 = xor i1 %52, true
  %54 = zext i1 %53 to i32
  %55 = sext i32 %54 to i64
  %56 = icmp ne i64 %55, 0
  br i1 %56, label %57, label %72

57:                                               ; preds = %49
  br label %58

58:                                               ; preds = %57
  br label %59

59:                                               ; preds = %58
  br label %60

60:                                               ; preds = %59
  %61 = load i64, ptr @H5E_FUNC_g, align 8
  %62 = load i64, ptr @H5E_CANTSET_g, align 8
  %63 = call i32 (ptr, ptr, i32, i64, i64, ptr, ...) @H5E_printf_stack(ptr noundef @.str, ptr noundef @__func__.H5Pcopy_prop, i32 noundef 1357, i64 noundef %61, i64 noundef %62, ptr noundef @.str.2)
  br label %64

64:                                               ; preds = %60
  store i8 1, ptr %11, align 1
  %65 = load i8, ptr %11, align 1
  %66 = trunc i8 %65 to i1
  %67 = zext i1 %66 to i8
  store i8 %67, ptr %11, align 1
  br label %68

68:                                               ; preds = %64
  br label %69

69:                                               ; preds = %68
  store i32 -1, ptr %9, align 4
  br label %228

70:                                               ; No predecessors!
  br label %71

71:                                               ; preds = %70
  br label %73

72:                                               ; preds = %49
  store i8 1, ptr %10, align 1
  br label %73

73:                                               ; preds = %72, %71
  %74 = call i32 @H5E_clear_stack()
  %75 = load i64, ptr %5, align 8
  %76 = call i32 @H5I_get_type(i64 noundef %75)
  store i32 %76, ptr %7, align 4
  %77 = icmp slt i32 %76, 0
  br i1 %77, label %78, label %93

78:                                               ; preds = %73
  br label %79

79:                                               ; preds = %78
  br label %80

80:                                               ; preds = %79
  br label %81

81:                                               ; preds = %80
  %82 = load i64, ptr @H5E_ARGS_g, align 8
  %83 = load i64, ptr @H5E_BADVALUE_g, align 8
  %84 = call i32 (ptr, ptr, i32, i64, i64, ptr, ...) @H5E_printf_stack(ptr noundef @.str, ptr noundef @__func__.H5Pcopy_prop, i32 noundef 1361, i64 noundef %82, i64 noundef %83, ptr noundef @.str.46)
  br label %85

85:                                               ; preds = %81
  store i8 1, ptr %11, align 1
  %86 = load i8, ptr %11, align 1
  %87 = trunc i8 %86 to i1
  %88 = zext i1 %87 to i8
  store i8 %88, ptr %11, align 1
  br label %89

89:                                               ; preds = %85
  br label %90

90:                                               ; preds = %89
  store i32 -1, ptr %9, align 4
  br label %228

91:                                               ; No predecessors!
  br label %92

92:                                               ; preds = %91
  br label %93

93:                                               ; preds = %92, %73
  %94 = load i64, ptr %4, align 8
  %95 = call i32 @H5I_get_type(i64 noundef %94)
  store i32 %95, ptr %8, align 4
  %96 = icmp slt i32 %95, 0
  br i1 %96, label %97, label %112

97:                                               ; preds = %93
  br label %98

98:                                               ; preds = %97
  br label %99

99:                                               ; preds = %98
  br label %100

100:                                              ; preds = %99
  %101 = load i64, ptr @H5E_ARGS_g, align 8
  %102 = load i64, ptr @H5E_BADVALUE_g, align 8
  %103 = call i32 (ptr, ptr, i32, i64, i64, ptr, ...) @H5E_printf_stack(ptr noundef @.str, ptr noundef @__func__.H5Pcopy_prop, i32 noundef 1363, i64 noundef %101, i64 noundef %102, ptr noundef @.str.47)
  br label %104

104:                                              ; preds = %100
  store i8 1, ptr %11, align 1
  %105 = load i8, ptr %11, align 1
  %106 = trunc i8 %105 to i1
  %107 = zext i1 %106 to i8
  store i8 %107, ptr %11, align 1
  br label %108

108:                                              ; preds = %104
  br label %109

109:                                              ; preds = %108
  store i32 -1, ptr %9, align 4
  br label %228

110:                                              ; No predecessors!
  br label %111

111:                                              ; preds = %110
  br label %112

112:                                              ; preds = %111, %93
  %113 = load i32, ptr %7, align 4
  %114 = icmp ne i32 11, %113
  br i1 %114, label %115, label %118

115:                                              ; preds = %112
  %116 = load i32, ptr %7, align 4
  %117 = icmp ne i32 10, %116
  br i1 %117, label %124, label %118

118:                                              ; preds = %115, %112
  %119 = load i32, ptr %8, align 4
  %120 = icmp ne i32 11, %119
  br i1 %120, label %121, label %139

121:                                              ; preds = %118
  %122 = load i32, ptr %8, align 4
  %123 = icmp ne i32 10, %122
  br i1 %123, label %124, label %139

124:                                              ; preds = %121, %115
  br label %125

125:                                              ; preds = %124
  br label %126

126:                                              ; preds = %125
  br label %127

127:                                              ; preds = %126
  %128 = load i64, ptr @H5E_ARGS_g, align 8
  %129 = load i64, ptr @H5E_BADTYPE_g, align 8
  %130 = call i32 (ptr, ptr, i32, i64, i64, ptr, ...) @H5E_printf_stack(ptr noundef @.str, ptr noundef @__func__.H5Pcopy_prop, i32 noundef 1366, i64 noundef %128, i64 noundef %129, ptr noundef @.str.37)
  br label %131

131:                                              ; preds = %127
  store i8 1, ptr %11, align 1
  %132 = load i8, ptr %11, align 1
  %133 = trunc i8 %132 to i1
  %134 = zext i1 %133 to i8
  store i8 %134, ptr %11, align 1
  br label %135

135:                                              ; preds = %131
  br label %136

136:                                              ; preds = %135
  store i32 -1, ptr %9, align 4
  br label %228

137:                                              ; No predecessors!
  br label %138

138:                                              ; preds = %137
  br label %139

139:                                              ; preds = %138, %121, %118
  %140 = load i32, ptr %7, align 4
  %141 = load i32, ptr %8, align 4
  %142 = icmp ne i32 %140, %141
  br i1 %142, label %143, label %158

143:                                              ; preds = %139
  br label %144

144:                                              ; preds = %143
  br label %145

145:                                              ; preds = %144
  br label %146

146:                                              ; preds = %145
  %147 = load i64, ptr @H5E_ARGS_g, align 8
  %148 = load i64, ptr @H5E_BADTYPE_g, align 8
  %149 = call i32 (ptr, ptr, i32, i64, i64, ptr, ...) @H5E_printf_stack(ptr noundef @.str, ptr noundef @__func__.H5Pcopy_prop, i32 noundef 1368, i64 noundef %147, i64 noundef %148, ptr noundef @.str.38)
  br label %150

150:                                              ; preds = %146
  store i8 1, ptr %11, align 1
  %151 = load i8, ptr %11, align 1
  %152 = trunc i8 %151 to i1
  %153 = zext i1 %152 to i8
  store i8 %153, ptr %11, align 1
  br label %154

154:                                              ; preds = %150
  br label %155

155:                                              ; preds = %154
  store i32 -1, ptr %9, align 4
  br label %228

156:                                              ; No predecessors!
  br label %157

157:                                              ; preds = %156
  br label %158

158:                                              ; preds = %157, %139
  %159 = load ptr, ptr %6, align 8
  %160 = icmp ne ptr %159, null
  br i1 %160, label %161, label %165

161:                                              ; preds = %158
  %162 = load ptr, ptr %6, align 8
  %163 = load i8, ptr %162, align 1
  %164 = icmp ne i8 %163, 0
  br i1 %164, label %180, label %165

165:                                              ; preds = %161, %158
  br label %166

166:                                              ; preds = %165
  br label %167

167:                                              ; preds = %166
  br label %168

168:                                              ; preds = %167
  %169 = load i64, ptr @H5E_ARGS_g, align 8
  %170 = load i64, ptr @H5E_BADVALUE_g, align 8
  %171 = call i32 (ptr, ptr, i32, i64, i64, ptr, ...) @H5E_printf_stack(ptr noundef @.str, ptr noundef @__func__.H5Pcopy_prop, i32 noundef 1370, i64 noundef %169, i64 noundef %170, ptr noundef @.str.48)
  br label %172

172:                                              ; preds = %168
  store i8 1, ptr %11, align 1
  %173 = load i8, ptr %11, align 1
  %174 = trunc i8 %173 to i1
  %175 = zext i1 %174 to i8
  store i8 %175, ptr %11, align 1
  br label %176

176:                                              ; preds = %172
  br label %177

177:                                              ; preds = %176
  store i32 -1, ptr %9, align 4
  br label %228

178:                                              ; No predecessors!
  br label %179

179:                                              ; preds = %178
  br label %180

180:                                              ; preds = %179, %161
  %181 = load i32, ptr %7, align 4
  %182 = icmp eq i32 11, %181
  br i1 %182, label %183, label %205

183:                                              ; preds = %180
  %184 = load i64, ptr %4, align 8
  %185 = load i64, ptr %5, align 8
  %186 = load ptr, ptr %6, align 8
  %187 = call i32 @H5P__copy_prop_plist(i64 noundef %184, i64 noundef %185, ptr noundef %186)
  %188 = icmp slt i32 %187, 0
  br i1 %188, label %189, label %204

189:                                              ; preds = %183
  br label %190

190:                                              ; preds = %189
  br label %191

191:                                              ; preds = %190
  br label %192

192:                                              ; preds = %191
  %193 = load i64, ptr @H5E_PLIST_g, align 8
  %194 = load i64, ptr @H5E_CANTCOPY_g, align 8
  %195 = call i32 (ptr, ptr, i32, i64, i64, ptr, ...) @H5E_printf_stack(ptr noundef @.str, ptr noundef @__func__.H5Pcopy_prop, i32 noundef 1375, i64 noundef %193, i64 noundef %194, ptr noundef @.str.49)
  br label %196

196:                                              ; preds = %192
  store i8 1, ptr %11, align 1
  %197 = load i8, ptr %11, align 1
  %198 = trunc i8 %197 to i1
  %199 = zext i1 %198 to i8
  store i8 %199, ptr %11, align 1
  br label %200

200:                                              ; preds = %196
  br label %201

201:                                              ; preds = %200
  store i32 -1, ptr %9, align 4
  br label %228

202:                                              ; No predecessors!
  br label %203

203:                                              ; preds = %202
  br label %204

204:                                              ; preds = %203, %183
  br label %227

205:                                              ; preds = %180
  %206 = load i64, ptr %4, align 8
  %207 = load i64, ptr %5, align 8
  %208 = load ptr, ptr %6, align 8
  %209 = call i32 @H5P__copy_prop_pclass(i64 noundef %206, i64 noundef %207, ptr noundef %208)
  %210 = icmp slt i32 %209, 0
  br i1 %210, label %211, label %226

211:                                              ; preds = %205
  br label %212

212:                                              ; preds = %211
  br label %213

213:                                              ; preds = %212
  br label %214

214:                                              ; preds = %213
  %215 = load i64, ptr @H5E_PLIST_g, align 8
  %216 = load i64, ptr @H5E_CANTCOPY_g, align 8
  %217 = call i32 (ptr, ptr, i32, i64, i64, ptr, ...) @H5E_printf_stack(ptr noundef @.str, ptr noundef @__func__.H5Pcopy_prop, i32 noundef 1380, i64 noundef %215, i64 noundef %216, ptr noundef @.str.50)
  br label %218

218:                                              ; preds = %214
  store i8 1, ptr %11, align 1
  %219 = load i8, ptr %11, align 1
  %220 = trunc i8 %219 to i1
  %221 = zext i1 %220 to i8
  store i8 %221, ptr %11, align 1
  br label %222

222:                                              ; preds = %218
  br label %223

223:                                              ; preds = %222
  store i32 -1, ptr %9, align 4
  br label %228

224:                                              ; No predecessors!
  br label %225

225:                                              ; preds = %224
  br label %226

226:                                              ; preds = %225, %205
  br label %227

227:                                              ; preds = %226, %204
  br label %228

228:                                              ; preds = %227, %223, %201, %177, %155, %136, %109, %90, %69, %45
  %229 = load i8, ptr %10, align 1
  %230 = trunc i8 %229 to i1
  %231 = xor i1 %230, true
  %232 = xor i1 %231, true
  %233 = zext i1 %232 to i32
  %234 = sext i32 %233 to i64
  %235 = icmp ne i64 %234, 0
  br i1 %235, label %236, label %238

236:                                              ; preds = %228
  %237 = call i32 @H5CX_pop(i1 noundef zeroext true)
  store i8 0, ptr %10, align 1
  br label %238

238:                                              ; preds = %236, %228
  %239 = load i8, ptr %11, align 1
  %240 = trunc i8 %239 to i1
  %241 = xor i1 %240, true
  %242 = xor i1 %241, true
  %243 = zext i1 %242 to i32
  %244 = sext i32 %243 to i64
  %245 = icmp ne i64 %244, 0
  br i1 %245, label %246, label %248

246:                                              ; preds = %238
  %247 = call i32 @H5E_dump_api_stack()
  br label %248

248:                                              ; preds = %246, %238
  %249 = load i32, ptr %9, align 4
  ret i32 %249
}