; Function Attrs: nounwind uwtable
define range(i32 -1, 1) i32 @H5Pcopy_prop(i64 noundef %0, i64 noundef %1, ptr noundef %2) local_unnamed_addr #0 {
  %4 = load i8, ptr @H5_libinit_g, align 1
  %5 = trunc i8 %4 to i1
  %6 = load i8, ptr @H5_libterm_g, align 1
  %7 = trunc i8 %6 to i1
  %8 = select i1 %5, i1 true, i1 %7
  br i1 %8, label %16, label %9

9:                                                ; preds = %3
  %10 = tail call i32 @H5_init_library() #2
  %11 = icmp slt i32 %10, 0
  br i1 %11, label %12, label %16

12:                                               ; preds = %9
  %13 = load i64, ptr @H5E_FUNC_g, align 8
  %14 = load i64, ptr @H5E_CANTINIT_g, align 8
  %15 = tail call i32 (ptr, ptr, i32, i64, i64, ptr, ...) @H5E_printf_stack(ptr noundef nonnull @.str, ptr noundef nonnull @__func__.H5Pcopy_prop, i32 noundef 1357, i64 noundef %13, i64 noundef %14, ptr noundef nonnull @.str.1) #2
  br label %.thread47

16:                                               ; preds = %9, %3
  %17 = tail call i32 @H5CX_push() #2
  %18 = icmp slt i32 %17, 0
  br i1 %18, label %19, label %23

19:                                               ; preds = %16
  %20 = load i64, ptr @H5E_FUNC_g, align 8
  %21 = load i64, ptr @H5E_CANTSET_g, align 8
  %22 = tail call i32 (ptr, ptr, i32, i64, i64, ptr, ...) @H5E_printf_stack(ptr noundef nonnull @.str, ptr noundef nonnull @__func__.H5Pcopy_prop, i32 noundef 1357, i64 noundef %20, i64 noundef %21, ptr noundef nonnull @.str.2) #2
  br label %.thread47

23:                                               ; preds = %16
  %24 = tail call i32 @H5E_clear_stack() #2
  %25 = tail call i32 @H5I_get_type(i64 noundef %1) #2
  %26 = icmp slt i32 %25, 0
  br i1 %26, label %27, label %31

27:                                               ; preds = %23
  %28 = load i64, ptr @H5E_ARGS_g, align 8
  %29 = load i64, ptr @H5E_BADVALUE_g, align 8
  %30 = tail call i32 (ptr, ptr, i32, i64, i64, ptr, ...) @H5E_printf_stack(ptr noundef nonnull @.str, ptr noundef nonnull @__func__.H5Pcopy_prop, i32 noundef 1361, i64 noundef %28, i64 noundef %29, ptr noundef nonnull @.str.46) #2
  br label %.thread53

31:                                               ; preds = %23
  %32 = tail call i32 @H5I_get_type(i64 noundef %0) #2
  %33 = icmp slt i32 %32, 0
  br i1 %33, label %34, label %38

34:                                               ; preds = %31
  %35 = load i64, ptr @H5E_ARGS_g, align 8
  %36 = load i64, ptr @H5E_BADVALUE_g, align 8
  %37 = tail call i32 (ptr, ptr, i32, i64, i64, ptr, ...) @H5E_printf_stack(ptr noundef nonnull @.str, ptr noundef nonnull @__func__.H5Pcopy_prop, i32 noundef 1363, i64 noundef %35, i64 noundef %36, ptr noundef nonnull @.str.47) #2
  br label %.thread53

38:                                               ; preds = %31
  %39 = add nsw i32 %25, -12
  %or.cond = icmp ult i32 %39, -2
  %40 = add nsw i32 %32, -12
  %or.cond3 = icmp ult i32 %40, -2
  %or.cond38 = select i1 %or.cond, i1 true, i1 %or.cond3
  br i1 %or.cond38, label %41, label %45

41:                                               ; preds = %38
  %42 = load i64, ptr @H5E_ARGS_g, align 8
  %43 = load i64, ptr @H5E_BADTYPE_g, align 8
  %44 = tail call i32 (ptr, ptr, i32, i64, i64, ptr, ...) @H5E_printf_stack(ptr noundef nonnull @.str, ptr noundef nonnull @__func__.H5Pcopy_prop, i32 noundef 1366, i64 noundef %42, i64 noundef %43, ptr noundef nonnull @.str.37) #2
  br label %.thread53

45:                                               ; preds = %38
  %.not = icmp eq i32 %25, %32
  br i1 %.not, label %50, label %46

46:                                               ; preds = %45
  %47 = load i64, ptr @H5E_ARGS_g, align 8
  %48 = load i64, ptr @H5E_BADTYPE_g, align 8
  %49 = tail call i32 (ptr, ptr, i32, i64, i64, ptr, ...) @H5E_printf_stack(ptr noundef nonnull @.str, ptr noundef nonnull @__func__.H5Pcopy_prop, i32 noundef 1368, i64 noundef %47, i64 noundef %48, ptr noundef nonnull @.str.38) #2
  br label %.thread53

50:                                               ; preds = %45
  %.not36 = icmp eq ptr %2, null
  br i1 %.not36, label %53, label %51

51:                                               ; preds = %50
  %52 = load i8, ptr %2, align 1
  %.not37 = icmp eq i8 %52, 0
  br i1 %.not37, label %53, label %57

53:                                               ; preds = %50, %51
  %54 = load i64, ptr @H5E_ARGS_g, align 8
  %55 = load i64, ptr @H5E_BADVALUE_g, align 8
  %56 = tail call i32 (ptr, ptr, i32, i64, i64, ptr, ...) @H5E_printf_stack(ptr noundef nonnull @.str, ptr noundef nonnull @__func__.H5Pcopy_prop, i32 noundef 1370, i64 noundef %54, i64 noundef %55, ptr noundef nonnull @.str.48) #2
  br label %.thread53

57:                                               ; preds = %51
  %58 = icmp eq i32 %25, 11
  br i1 %58, label %59, label %66

59:                                               ; preds = %57
  %60 = tail call i32 @H5P__copy_prop_plist(i64 noundef %0, i64 noundef %1, ptr noundef nonnull %2) #2
  %61 = icmp slt i32 %60, 0
  br i1 %61, label %62, label %74

62:                                               ; preds = %59
  %63 = load i64, ptr @H5E_PLIST_g, align 8
  %64 = load i64, ptr @H5E_CANTCOPY_g, align 8
  %65 = tail call i32 (ptr, ptr, i32, i64, i64, ptr, ...) @H5E_printf_stack(ptr noundef nonnull @.str, ptr noundef nonnull @__func__.H5Pcopy_prop, i32 noundef 1375, i64 noundef %63, i64 noundef %64, ptr noundef nonnull @.str.49) #2
  br label %.thread53

66:                                               ; preds = %57
  %67 = tail call i32 @H5P__copy_prop_pclass(i64 noundef %0, i64 noundef %1, ptr noundef nonnull %2) #2
  %68 = icmp slt i32 %67, 0
  br i1 %68, label %69, label %74

69:                                               ; preds = %66
  %70 = load i64, ptr @H5E_PLIST_g, align 8
  %71 = load i64, ptr @H5E_CANTCOPY_g, align 8
  %72 = tail call i32 (ptr, ptr, i32, i64, i64, ptr, ...) @H5E_printf_stack(ptr noundef nonnull @.str, ptr noundef nonnull @__func__.H5Pcopy_prop, i32 noundef 1380, i64 noundef %70, i64 noundef %71, ptr noundef nonnull @.str.50) #2
  br label %.thread53

.thread53:                                        ; preds = %53, %69, %62, %46, %41, %34, %27
  %73 = tail call i32 @H5CX_pop(i1 noundef zeroext true) #2
  br label %.thread47

74:                                               ; preds = %66, %59
  %75 = tail call i32 @H5CX_pop(i1 noundef zeroext true) #2
  br label %77

.thread47:                                        ; preds = %19, %12, %.thread53
  %76 = tail call i32 @H5E_dump_api_stack() #2
  br label %77

77:                                               ; preds = %74, %.thread47
  %.0324250 = phi i32 [ -1, %.thread47 ], [ 0, %74 ]
  ret i32 %.0324250
}